; ModuleID = '20/1256.c'
source_filename = "20/1256.c"
target datalayout = "e-m:e-p270:32:32-p271:32:32-p272:64:64-i64:64-f80:128-n8:16:32:64-S128"
target triple = "x86_64-pc-linux-gnu"

@.str = private unnamed_addr constant [5 x i8] c"%s%s\00", align 1
@.str.1 = private unnamed_addr constant [2 x i8] c"\0A\00", align 1

; Function Attrs: noinline nounwind uwtable
define dso_local i32 @main() #0 {
  %1 = alloca i32, align 4
  %2 = alloca [22 x i8], align 16
  %3 = alloca [4 x i8], align 1
  %4 = alloca i8, align 1
  %5 = alloca i32, align 4
  %6 = alloca i32, align 4
  %7 = alloca i32, align 4
  %8 = alloca i32, align 4
  store i32 0, i32* %1, align 4
  br label %9

9:                                                ; preds = %90, %0
  %10 = getelementptr inbounds [22 x i8], [22 x i8]* %2, i64 0, i64 0
  %11 = getelementptr inbounds [4 x i8], [4 x i8]* %3, i64 0, i64 0
  %12 = call i32 (i8*, ...) @__isoc99_scanf(i8* getelementptr inbounds ([5 x i8], [5 x i8]* @.str, i64 0, i64 0), i8* %10, i8* %11)
  %13 = icmp ne i32 %12, -1
  br i1 %13, label %14, label %94

14:                                               ; preds = %9
  %15 = getelementptr inbounds [22 x i8], [22 x i8]* %2, i64 0, i64 0
  %16 = call i64 @strlen(i8* %15) #3
  %17 = trunc i64 %16 to i32
  store i32 %17, i32* %7, align 4
  %18 = getelementptr inbounds [4 x i8], [4 x i8]* %3, i64 0, i64 0
  %19 = call i64 @strlen(i8* %18) #3
  %20 = trunc i64 %19 to i32
  store i32 %20, i32* %8, align 4
  %21 = getelementptr inbounds [22 x i8], [22 x i8]* %2, i64 0, i64 0
  %22 = load i8, i8* %21, align 16
  store i8 %22, i8* %4, align 1
  store i32 0, i32* %6, align 4
  store i32 1, i32* %5, align 4
  br label %23

23:                                               ; preds = %43, %14
  %24 = load i32, i32* %5, align 4
  %25 = load i32, i32* %7, align 4
  %26 = icmp slt i32 %24, %25
  br i1 %26, label %27, label %46

27:                                               ; preds = %23
  %28 = load i32, i32* %5, align 4
  %29 = sext i32 %28 to i64
  %30 = getelementptr inbounds [22 x i8], [22 x i8]* %2, i64 0, i64 %29
  %31 = load i8, i8* %30, align 1
  %32 = sext i8 %31 to i32
  %33 = load i8, i8* %4, align 1
  %34 = sext i8 %33 to i32
  %35 = icmp sgt i32 %32, %34
  br i1 %35, label %36, label %42

36:                                               ; preds = %27
  %37 = load i32, i32* %5, align 4
  %38 = sext i32 %37 to i64
  %39 = getelementptr inbounds [22 x i8], [22 x i8]* %2, i64 0, i64 %38
  %40 = load i8, i8* %39, align 1
  store i8 %40, i8* %4, align 1
  %41 = load i32, i32* %5, align 4
  store i32 %41, i32* %6, align 4
  br label %42

42:                                               ; preds = %36, %27
  br label %43

43:                                               ; preds = %42
  %44 = load i32, i32* %5, align 4
  %45 = add nsw i32 %44, 1
  store i32 %45, i32* %5, align 4
  br label %23

46:                                               ; preds = %23
  %47 = load i32, i32* %7, align 4
  %48 = sub nsw i32 %47, 1
  store i32 %48, i32* %5, align 4
  br label %49

49:                                               ; preds = %63, %46
  %50 = load i32, i32* %5, align 4
  %51 = load i32, i32* %6, align 4
  %52 = icmp sgt i32 %50, %51
  br i1 %52, label %53, label %66

53:                                               ; preds = %49
  %54 = load i32, i32* %5, align 4
  %55 = sext i32 %54 to i64
  %56 = getelementptr inbounds [22 x i8], [22 x i8]* %2, i64 0, i64 %55
  %57 = load i8, i8* %56, align 1
  %58 = load i32, i32* %5, align 4
  %59 = load i32, i32* %8, align 4
  %60 = add nsw i32 %58, %59
  %61 = sext i32 %60 to i64
  %62 = getelementptr inbounds [22 x i8], [22 x i8]* %2, i64 0, i64 %61
  store i8 %57, i8* %62, align 1
  br label %63

63:                                               ; preds = %53
  %64 = load i32, i32* %5, align 4
  %65 = add nsw i32 %64, -1
  store i32 %65, i32* %5, align 4
  br label %49

66:                                               ; preds = %49
  %67 = load i32, i32* %7, align 4
  %68 = load i32, i32* %8, align 4
  %69 = add nsw i32 %67, %68
  %70 = sext i32 %69 to i64
  %71 = getelementptr inbounds [22 x i8], [22 x i8]* %2, i64 0, i64 %70
  store i8 0, i8* %71, align 1
  store i32 0, i32* %5, align 4
  br label %72

72:                                               ; preds = %87, %66
  %73 = load i32, i32* %5, align 4
  %74 = load i32, i32* %8, align 4
  %75 = icmp slt i32 %73, %74
  br i1 %75, label %76, label %90

76:                                               ; preds = %72
  %77 = load i32, i32* %5, align 4
  %78 = sext i32 %77 to i64
  %79 = getelementptr inbounds [4 x i8], [4 x i8]* %3, i64 0, i64 %78
  %80 = load i8, i8* %79, align 1
  %81 = load i32, i32* %6, align 4
  %82 = load i32, i32* %5, align 4
  %83 = add nsw i32 %81, %82
  %84 = add nsw i32 %83, 1
  %85 = sext i32 %84 to i64
  %86 = getelementptr inbounds [22 x i8], [22 x i8]* %2, i64 0, i64 %85
  store i8 %80, i8* %86, align 1
  br label %87

87:                                               ; preds = %76
  %88 = load i32, i32* %5, align 4
  %89 = add nsw i32 %88, 1
  store i32 %89, i32* %5, align 4
  br label %72

90:                                               ; preds = %72
  %91 = getelementptr inbounds [22 x i8], [22 x i8]* %2, i64 0, i64 0
  %92 = call i32 @puts(i8* %91)
  %93 = call i32 (i8*, ...) @printf(i8* getelementptr inbounds ([2 x i8], [2 x i8]* @.str.1, i64 0, i64 0))
  br label %9

94:                                               ; preds = %9
  ret i32 0
}

declare dso_local i32 @__isoc99_scanf(i8*, ...) #1

; Function Attrs: nounwind readonly
declare dso_local i64 @strlen(i8*) #2

declare dso_local i32 @puts(i8*) #1

declare dso_local i32 @printf(i8*, ...) #1


!llvm.module.flags = !{!0}
!llvm.ident = !{!1}

!0 = !{i32 1, !"wchar_size", i32 4}
!1 = !{!"clang version 10.0.0-4ubuntu1 "}
